; Function Attrs: mustprogress uwtable
define internal void @_ZN4absl18debugging_internal12_GLOBAL__N_119SimpleSignalHandlerEi(i32 noundef %0) #4 personality ptr @__gxx_personality_v0 {
  %2 = alloca ptr, align 8
  %3 = alloca [100 x i8], align 16
  %4 = alloca %"class.absl::log_internal::LogMessage", align 8
  call void @llvm.lifetime.start.p0(i64 100, ptr nonnull %3) #18
  call void @llvm.memset.p0.i64(ptr noundef nonnull align 16 dereferenceable(100) %3, i8 97, i64 100, i1 false)
  %5 = icmp eq i32 %0, 0
  br i1 %5, label %6, label %11

6:                                                ; preds = %1
  call void @llvm.lifetime.start.p0(i64 16, ptr nonnull %4) #18
  call void @_ZN4absl12log_internal10LogMessageC1EPKciNS1_7InfoTagE(ptr noundef nonnull align 8 dereferenceable(16) %4, ptr noundef nonnull @.str.3, i32 noundef 36) #21
  call void @llvm.lifetime.start.p0(i64 8, ptr nonnull %2)
  store ptr %3, ptr %2, align 8, !tbaa !42
  %7 = invoke noundef nonnull align 8 dereferenceable(16) ptr @_ZN4absl12log_internal10LogMessagelsIPvTnNSt9enable_ifIXntsr4absl16HasAbslStringifyIT_EE5valueEiE4typeELi0EEERS1_RKS5_(ptr noundef nonnull align 8 dereferenceable(16) %4, ptr noundef nonnull align 8 dereferenceable(8) %2)
          to label %8 unwind label %9

8:                                                ; preds = %6
  call void @llvm.lifetime.end.p0(i64 8, ptr nonnull %2)
  call void @_ZN4absl12log_internal10LogMessageD1Ev(ptr noundef nonnull align 8 dereferenceable(16) %4) #22
  call void @llvm.lifetime.end.p0(i64 16, ptr nonnull %4) #18
  br label %11

9:                                                ; preds = %6
  %10 = landingpad { ptr, i32 }
          cleanup
  call void @_ZN4absl12log_internal10LogMessageD1Ev(ptr noundef nonnull align 8 dereferenceable(16) %4) #22
  call void @llvm.lifetime.end.p0(i64 16, ptr nonnull %4) #18
  call void @llvm.lifetime.end.p0(i64 100, ptr nonnull %3) #18
  resume { ptr, i32 } %10

11:                                               ; preds = %8, %1
  call void @llvm.lifetime.end.p0(i64 100, ptr nonnull %3) #18
  ret void
}